target datalayout = "e-m:e-p270:32:32-p271:32:32-p272:64:64-i64:64-i128:128-f80:128-n8:16:32:64-S128"
target triple = "x86_64-pc-linux-gnu"

%"class.vas::ot::RgbHistogram" = type <{ ptr, i32, i32, i32, [4 x i8] }>

; Function Attrs: mustprogress nounwind uwtable
define hidden void @_ZN3vas2ot12RgbHistogramC2Ei(ptr noundef nonnull align 8 dereferenceable(20) %0, i32 noundef %1) unnamed_addr #0 align 2 {
  %3 = alloca ptr, align 8
  %4 = alloca i32, align 4
  store ptr %0, ptr %3, align 8, !tbaa !3
  store i32 %1, ptr %4, align 4, !tbaa !8
  %5 = load ptr, ptr %3, align 8
  store ptr getelementptr inbounds inrange(-16, 40) ({ [7 x ptr] }, ptr @_ZTVN3vas2ot12RgbHistogramE, i32 0, i32 0, i32 2), ptr %5, align 8, !tbaa !10
  %6 = getelementptr inbounds nuw %"class.vas::ot::RgbHistogram", ptr %5, i32 0, i32 1
  %7 = load i32, ptr %4, align 4, !tbaa !8
  store i32 %7, ptr %6, align 8, !tbaa !12
  %8 = getelementptr inbounds nuw %"class.vas::ot::RgbHistogram", ptr %5, i32 0, i32 2
  %9 = load i32, ptr %4, align 4, !tbaa !8
  %10 = sdiv i32 256, %9
  store i32 %10, ptr %8, align 4, !tbaa !14
  %11 = getelementptr inbounds nuw %"class.vas::ot::RgbHistogram", ptr %5, i32 0, i32 3
  %12 = getelementptr inbounds nuw %"class.vas::ot::RgbHistogram", ptr %5, i32 0, i32 2
  %13 = load i32, ptr %12, align 4, !tbaa !14
  %14 = sitofp i32 %13 to double
  %15 = call double @pow(double noundef %14, double noundef 3.000000e+00) #8, !tbaa !8
  %16 = fptosi double %15 to i32
  store i32 %16, ptr %11, align 8, !tbaa !15
  ret void
}