; Function Attrs: mustprogress nofree nounwind willreturn memory(write) uwtable
define hidden void @_ZN3vas2ot12RgbHistogramC2Ei(ptr noundef nonnull writeonly align 8 captures(none) dereferenceable(20) initializes((0, 20)) %0, i32 noundef %1) unnamed_addr #0 align 2 {
  store ptr getelementptr inbounds nuw inrange(-16, 40) (i8, ptr @_ZTVN3vas2ot12RgbHistogramE, i64 16), ptr %0, align 8, !tbaa !3
  %3 = getelementptr inbounds nuw i8, ptr %0, i64 8
  store i32 %1, ptr %3, align 8, !tbaa !6
  %4 = getelementptr inbounds nuw i8, ptr %0, i64 12
  %5 = sdiv i32 256, %1
  store i32 %5, ptr %4, align 4, !tbaa !10
  %6 = getelementptr inbounds nuw i8, ptr %0, i64 16
  %7 = sitofp i32 %5 to double
  %8 = tail call double @pow(double noundef %7, double noundef 3.000000e+00) #12, !tbaa !11
  %9 = fptosi double %8 to i32
  store i32 %9, ptr %6, align 8, !tbaa !12
  ret void
}